; ModuleID = '38/1154.c'
source_filename = "38/1154.c"
target datalayout = "e-m:e-p270:32:32-p271:32:32-p272:64:64-i64:64-f80:128-n8:16:32:64-S128"
target triple = "x86_64-pc-linux-gnu"

@.str = private unnamed_addr constant [3 x i8] c"%d\00", align 1
@.str.1 = private unnamed_addr constant [4 x i8] c"%lf\00", align 1
@.str.2 = private unnamed_addr constant [6 x i8] c"%.5f\0A\00", align 1

; Function Attrs: noinline nounwind uwtable
define dso_local void @main() #0 {
  %1 = alloca i32, align 4
  %2 = alloca i32, align 4
  %3 = alloca double*, align 8
  %4 = alloca i32, align 4
  %5 = alloca double, align 8
  %6 = alloca double*, align 8
  %7 = alloca double, align 8
  %8 = alloca double, align 8
  %9 = alloca double, align 8
  %10 = alloca double, align 8
  %11 = call i32 (i8*, ...) @__isoc99_scanf(i8* getelementptr inbounds ([3 x i8], [3 x i8]* @.str, i64 0, i64 0), i32* %1)
  br label %12

12:                                               ; preds = %82, %0
  %13 = load i32, i32* %1, align 4
  %14 = add nsw i32 %13, -1
  store i32 %14, i32* %1, align 4
  %15 = icmp ne i32 %13, 0
  br i1 %15, label %16, label %90

16:                                               ; preds = %12
  %17 = call i32 (i8*, ...) @__isoc99_scanf(i8* getelementptr inbounds ([3 x i8], [3 x i8]* @.str, i64 0, i64 0), i32* %2)
  %18 = load i32, i32* %2, align 4
  %19 = sext i32 %18 to i64
  %20 = call noalias i8* @calloc(i64 %19, i64 4) #3
  %21 = bitcast i8* %20 to float*
  %22 = bitcast float* %21 to double*
  store double* %22, double** %3, align 8
  store i32 0, i32* %4, align 4
  br label %23

23:                                               ; preds = %31, %16
  %24 = load i32, i32* %4, align 4
  %25 = load i32, i32* %2, align 4
  %26 = icmp slt i32 %24, %25
  br i1 %26, label %27, label %34

27:                                               ; preds = %23
  %28 = load double*, double** %3, align 8
  %29 = getelementptr inbounds double, double* %28, i32 1
  store double* %29, double** %3, align 8
  %30 = call i32 (i8*, ...) @__isoc99_scanf(i8* getelementptr inbounds ([4 x i8], [4 x i8]* @.str.1, i64 0, i64 0), double* %28)
  br label %31

31:                                               ; preds = %27
  %32 = load i32, i32* %4, align 4
  %33 = add nsw i32 %32, 1
  store i32 %33, i32* %4, align 4
  br label %23

34:                                               ; preds = %23
  %35 = load double*, double** %3, align 8
  %36 = load i32, i32* %2, align 4
  %37 = sext i32 %36 to i64
  %38 = sub i64 0, %37
  %39 = getelementptr inbounds double, double* %35, i64 %38
  store double* %39, double** %3, align 8
  %40 = load double*, double** %3, align 8
  store double* %40, double** %6, align 8
  store double 0.000000e+00, double* %7, align 8
  store i32 0, i32* %4, align 4
  br label %41

41:                                               ; preds = %50, %34
  %42 = load i32, i32* %4, align 4
  %43 = load i32, i32* %2, align 4
  %44 = icmp slt i32 %42, %43
  br i1 %44, label %45, label %55

45:                                               ; preds = %41
  %46 = load double, double* %7, align 8
  %47 = load double*, double** %6, align 8
  %48 = load double, double* %47, align 8
  %49 = fadd double %46, %48
  store double %49, double* %7, align 8
  br label %50

50:                                               ; preds = %45
  %51 = load i32, i32* %4, align 4
  %52 = add nsw i32 %51, 1
  store i32 %52, i32* %4, align 4
  %53 = load double*, double** %6, align 8
  %54 = getelementptr inbounds double, double* %53, i32 1
  store double* %54, double** %6, align 8
  br label %41

55:                                               ; preds = %41
  %56 = load double, double* %7, align 8
  %57 = load i32, i32* %2, align 4
  %58 = sitofp i32 %57 to double
  %59 = fdiv double %56, %58
  store double %59, double* %8, align 8
  store double 0.000000e+00, double* %9, align 8
  %60 = load double*, double** %3, align 8
  store double* %60, double** %6, align 8
  store i32 0, i32* %4, align 4
  br label %61

61:                                               ; preds = %77, %55
  %62 = load i32, i32* %4, align 4
  %63 = load i32, i32* %2, align 4
  %64 = icmp slt i32 %62, %63
  br i1 %64, label %65, label %82

65:                                               ; preds = %61
  %66 = load double, double* %9, align 8
  %67 = load double*, double** %6, align 8
  %68 = load double, double* %67, align 8
  %69 = load double, double* %8, align 8
  %70 = fsub double %68, %69
  %71 = load double*, double** %6, align 8
  %72 = load double, double* %71, align 8
  %73 = load double, double* %8, align 8
  %74 = fsub double %72, %73
  %75 = fmul double %70, %74
  %76 = fadd double %66, %75
  store double %76, double* %9, align 8
  br label %77

77:                                               ; preds = %65
  %78 = load i32, i32* %4, align 4
  %79 = add nsw i32 %78, 1
  store i32 %79, i32* %4, align 4
  %80 = load double*, double** %6, align 8
  %81 = getelementptr inbounds double, double* %80, i32 1
  store double* %81, double** %6, align 8
  br label %61

82:                                               ; preds = %61
  %83 = load double, double* %9, align 8
  %84 = load i32, i32* %2, align 4
  %85 = sitofp i32 %84 to double
  %86 = fdiv double %83, %85
  %87 = call double @sqrt(double %86) #3
  store double %87, double* %10, align 8
  %88 = load double, double* %10, align 8
  %89 = call i32 (i8*, ...) @printf(i8* getelementptr inbounds ([6 x i8], [6 x i8]* @.str.2, i64 0, i64 0), double %88)
  br label %12

90:                                               ; preds = %12
  ret void
}

declare dso_local i32 @__isoc99_scanf(i8*, ...) #1

; Function Attrs: nounwind
declare dso_local noalias i8* @calloc(i64, i64) #2

; Function Attrs: nounwind
declare dso_local double @sqrt(double) #2

declare dso_local i32 @printf(i8*, ...) #1


!llvm.module.flags = !{!0}
!llvm.ident = !{!1}

!0 = !{i32 1, !"wchar_size", i32 4}
!1 = !{!"clang version 10.0.0-4ubuntu1 "}
